target datalayout = "e-m:e-p270:32:32-p271:32:32-p272:64:64-i64:64-i128:128-f80:128-n8:16:32:64-S128"
target triple = "x86_64-pc-linux-gnu"

%struct.WC_RNG = type { %struct.OS_Seed, ptr, ptr, i8 }
%struct.OS_Seed = type { i32 }

@initGlobalRNG = internal global i32 0, align 4
@globalRNG = internal global %struct.WC_RNG zeroinitializer, align 8

; Function Attrs: nounwind uwtable
define ptr @wolfssl_get_global_rng() #0 {
  %1 = alloca ptr, align 8
  call void @llvm.lifetime.start.p0(i64 8, ptr %1) #9
  store ptr null, ptr %1, align 8, !tbaa !132
  %2 = load volatile i32, ptr @initGlobalRNG, align 4, !tbaa !7
  %3 = icmp eq i32 %2, 0
  br i1 %3, label %4, label %8

4:                                                ; preds = %0
  br label %5

5:                                                ; preds = %4
  br label %6

6:                                                ; preds = %5
  br label %7

7:                                                ; preds = %6
  br label %9

8:                                                ; preds = %0
  store ptr @globalRNG, ptr %1, align 8, !tbaa !132
  br label %9

9:                                                ; preds = %8, %7
  %10 = load ptr, ptr %1, align 8, !tbaa !132
  call void @llvm.lifetime.end.p0(i64 8, ptr %1) #9
  ret ptr %10
}

; Function Attrs: nounwind uwtable
define ptr @wolfssl_make_global_rng() #0 {
  %1 = alloca ptr, align 8
  call void @llvm.lifetime.start.p0(i64 8, ptr %1) #9
  %2 = call ptr @wolfssl_get_global_rng()
  store ptr %2, ptr %1, align 8, !tbaa !132
  %3 = load ptr, ptr %1, align 8, !tbaa !132
  call void @llvm.lifetime.end.p0(i64 8, ptr %1) #9
  ret ptr %3
}

; Function Attrs: nounwind uwtable
define ptr @wolfssl_make_rng(ptr noundef %0, ptr noundef %1) #0 {
  %3 = alloca ptr, align 8
  %4 = alloca ptr, align 8
  %5 = alloca ptr, align 8
  store ptr %0, ptr %3, align 8, !tbaa !132
  store ptr %1, ptr %4, align 8, !tbaa !92
  call void @llvm.lifetime.start.p0(i64 8, ptr %5) #9
  store ptr null, ptr %5, align 8, !tbaa !132
  %6 = load ptr, ptr %4, align 8, !tbaa !92
  store i32 0, ptr %6, align 4, !tbaa !7
  %7 = load ptr, ptr %3, align 8, !tbaa !132
  %8 = icmp ne ptr %7, null
  br i1 %8, label %9, label %16

9:                                                ; preds = %2
  %10 = load ptr, ptr %3, align 8, !tbaa !132
  %11 = call i32 @wc_InitRng(ptr noundef %10)
  %12 = icmp eq i32 %11, 0
  br i1 %12, label %13, label %16

13:                                               ; preds = %9
  %14 = load ptr, ptr %3, align 8, !tbaa !132
  store ptr %14, ptr %5, align 8, !tbaa !132
  %15 = load ptr, ptr %4, align 8, !tbaa !92
  store i32 1, ptr %15, align 4, !tbaa !7
  br label %16

16:                                               ; preds = %13, %9, %2
  %17 = load ptr, ptr %5, align 8, !tbaa !132
  %18 = icmp eq ptr %17, null
  br i1 %18, label %19, label %24

19:                                               ; preds = %16
  br label %20

20:                                               ; preds = %19
  br label %21

21:                                               ; preds = %20
  br label %22

22:                                               ; preds = %21
  %23 = call ptr @wolfssl_make_global_rng()
  store ptr %23, ptr %5, align 8, !tbaa !132
  br label %24

24:                                               ; preds = %22, %16
  %25 = load ptr, ptr %5, align 8, !tbaa !132
  %26 = load ptr, ptr %3, align 8, !tbaa !132
  %27 = icmp ne ptr %25, %26
  br i1 %27, label %28, label %29

28:                                               ; preds = %24
  br label %29

29:                                               ; preds = %28, %24
  %30 = load ptr, ptr %5, align 8, !tbaa !132
  call void @llvm.lifetime.end.p0(i64 8, ptr %5) #9
  ret ptr %30
}