; Function Attrs: nounwind uwtable
define ptr @wolfssl_make_rng(ptr noundef %0, ptr noundef writeonly captures(none) initializes((0, 4)) %1) local_unnamed_addr #0 {
  store i32 0, ptr %1, align 4, !tbaa !3
  %.not = icmp eq ptr %0, null
  br i1 %.not, label %7, label %3

3:                                                ; preds = %2
  %4 = tail call i32 @wc_InitRng(ptr noundef nonnull %0) #22
  %5 = icmp eq i32 %4, 0
  br i1 %5, label %6, label %7

6:                                                ; preds = %3
  store i32 1, ptr %1, align 4, !tbaa !3
  br label %10

7:                                                ; preds = %3, %2
  %8 = load volatile i32, ptr @initGlobalRNG, align 4, !tbaa !3
  %9 = icmp eq i32 %8, 0
  %spec.select.i.i = select i1 %9, ptr null, ptr @globalRNG
  br label %10

10:                                               ; preds = %6, %7
  %.1 = phi ptr [ %spec.select.i.i, %7 ], [ %0, %6 ]
  ret ptr %.1
}